target datalayout = "e-m:e-p270:32:32-p271:32:32-p272:64:64-i64:64-i128:128-f80:128-n8:16:32:64-S128"
target triple = "x86_64-pc-linux-gnu"

%struct.salsa_ctx = type { [16 x i32] }

@TR = internal constant [16 x i32] [i32 0, i32 5, i32 10, i32 15, i32 12, i32 1, i32 6, i32 11, i32 8, i32 13, i32 2, i32 7, i32 4, i32 9, i32 14, i32 3], align 16

; Function Attrs: inlinehint nounwind ssp uwtable
define internal i32 @load32_le(ptr noundef %0) #5 {
  %2 = alloca ptr, align 8
  %3 = alloca i32, align 4
  store ptr %0, ptr %2, align 8
  call void @llvm.lifetime.start.p0(i64 4, ptr %3) #12
  %4 = load ptr, ptr %2, align 8
  %5 = call ptr @memcpy.inline(ptr noundef %3, ptr noundef %4, i64 noundef 4) #12
  %6 = load i32, ptr %3, align 4
  call void @llvm.lifetime.end.p0(i64 4, ptr %3) #12
  ret i32 %6
}

; Function Attrs: alwaysinline nounwind
define internal ptr @memcpy.inline(ptr noalias nonnull %0, ptr noalias nonnull %1, i64 %2) #2 {
  %4 = alloca ptr, align 8
  %5 = alloca ptr, align 8
  %6 = alloca i64, align 8
  store ptr %0, ptr %4, align 8
  store ptr %1, ptr %5, align 8
  store i64 %2, ptr %6, align 8
  %7 = load ptr, ptr %4, align 8
  %8 = load ptr, ptr %5, align 8
  %9 = load i64, ptr %6, align 8
  %10 = load ptr, ptr %4, align 8
  %11 = call i64 @llvm.objectsize.i64.p0(ptr %10, i1 false, i1 true, i1 true)
  %12 = call ptr @__memcpy_chk(ptr noundef %7, ptr noundef %8, i64 noundef %9, i64 noundef %11) #12
  ret ptr %12
}

; Function Attrs: nounwind ssp uwtable
define internal void @salsa_ivsetup(ptr noundef %0, ptr noundef %1, ptr noundef %2) #0 {
  %4 = alloca ptr, align 8
  %5 = alloca ptr, align 8
  %6 = alloca ptr, align 8
  store ptr %0, ptr %4, align 8
  store ptr %1, ptr %5, align 8
  store ptr %2, ptr %6, align 8
  %7 = load ptr, ptr %5, align 8
  %8 = getelementptr i8, ptr %7, i64 0
  %9 = call i32 @load32_le(ptr noundef %8)
  %10 = load ptr, ptr %4, align 8
  %11 = getelementptr inbounds nuw %struct.salsa_ctx, ptr %10, i32 0, i32 0
  %12 = load i32, ptr getelementptr ([16 x i32], ptr @TR, i64 0, i64 6), align 8
  %13 = sext i32 %12 to i64
  %14 = getelementptr [16 x i32], ptr %11, i64 0, i64 %13
  store i32 %9, ptr %14, align 4
  %15 = load ptr, ptr %5, align 8
  %16 = getelementptr i8, ptr %15, i64 4
  %17 = call i32 @load32_le(ptr noundef %16)
  %18 = load ptr, ptr %4, align 8
  %19 = getelementptr inbounds nuw %struct.salsa_ctx, ptr %18, i32 0, i32 0
  %20 = load i32, ptr getelementptr ([16 x i32], ptr @TR, i64 0, i64 7), align 4
  %21 = sext i32 %20 to i64
  %22 = getelementptr [16 x i32], ptr %19, i64 0, i64 %21
  store i32 %17, ptr %22, align 4
  %23 = load ptr, ptr %6, align 8
  %24 = icmp eq ptr %23, null
  br i1 %24, label %25, label %26

25:                                               ; preds = %3
  br label %30

26:                                               ; preds = %3
  %27 = load ptr, ptr %6, align 8
  %28 = getelementptr i8, ptr %27, i64 0
  %29 = call i32 @load32_le(ptr noundef %28)
  br label %30

30:                                               ; preds = %26, %25
  %31 = phi i32 [ 0, %25 ], [ %29, %26 ]
  %32 = load ptr, ptr %4, align 8
  %33 = getelementptr inbounds nuw %struct.salsa_ctx, ptr %32, i32 0, i32 0
  %34 = load i32, ptr getelementptr ([16 x i32], ptr @TR, i64 0, i64 8), align 16
  %35 = sext i32 %34 to i64
  %36 = getelementptr [16 x i32], ptr %33, i64 0, i64 %35
  store i32 %31, ptr %36, align 4
  %37 = load ptr, ptr %6, align 8
  %38 = icmp eq ptr %37, null
  br i1 %38, label %39, label %40

39:                                               ; preds = %30
  br label %44

40:                                               ; preds = %30
  %41 = load ptr, ptr %6, align 8
  %42 = getelementptr i8, ptr %41, i64 4
  %43 = call i32 @load32_le(ptr noundef %42)
  br label %44

44:                                               ; preds = %40, %39
  %45 = phi i32 [ 0, %39 ], [ %43, %40 ]
  %46 = load ptr, ptr %4, align 8
  %47 = getelementptr inbounds nuw %struct.salsa_ctx, ptr %46, i32 0, i32 0
  %48 = load i32, ptr getelementptr ([16 x i32], ptr @TR, i64 0, i64 9), align 4
  %49 = sext i32 %48 to i64
  %50 = getelementptr [16 x i32], ptr %47, i64 0, i64 %49
  store i32 %45, ptr %50, align 4
  ret void
}

; Function Attrs: nounwind ssp uwtable
define internal void @salsa_keysetup(ptr noundef %0, ptr noundef %1) #0 {
  %3 = alloca ptr, align 8
  %4 = alloca ptr, align 8
  store ptr %0, ptr %3, align 8
  store ptr %1, ptr %4, align 8
  %5 = load ptr, ptr %4, align 8
  %6 = getelementptr i8, ptr %5, i64 0
  %7 = call i32 @load32_le(ptr noundef %6)
  %8 = load ptr, ptr %3, align 8
  %9 = getelementptr inbounds nuw %struct.salsa_ctx, ptr %8, i32 0, i32 0
  %10 = load i32, ptr getelementptr ([16 x i32], ptr @TR, i64 0, i64 1), align 4
  %11 = sext i32 %10 to i64
  %12 = getelementptr [16 x i32], ptr %9, i64 0, i64 %11
  store i32 %7, ptr %12, align 4
  %13 = load ptr, ptr %4, align 8
  %14 = getelementptr i8, ptr %13, i64 4
  %15 = call i32 @load32_le(ptr noundef %14)
  %16 = load ptr, ptr %3, align 8
  %17 = getelementptr inbounds nuw %struct.salsa_ctx, ptr %16, i32 0, i32 0
  %18 = load i32, ptr getelementptr ([16 x i32], ptr @TR, i64 0, i64 2), align 8
  %19 = sext i32 %18 to i64
  %20 = getelementptr [16 x i32], ptr %17, i64 0, i64 %19
  store i32 %15, ptr %20, align 4
  %21 = load ptr, ptr %4, align 8
  %22 = getelementptr i8, ptr %21, i64 8
  %23 = call i32 @load32_le(ptr noundef %22)
  %24 = load ptr, ptr %3, align 8
  %25 = getelementptr inbounds nuw %struct.salsa_ctx, ptr %24, i32 0, i32 0
  %26 = load i32, ptr getelementptr ([16 x i32], ptr @TR, i64 0, i64 3), align 4
  %27 = sext i32 %26 to i64
  %28 = getelementptr [16 x i32], ptr %25, i64 0, i64 %27
  store i32 %23, ptr %28, align 4
  %29 = load ptr, ptr %4, align 8
  %30 = getelementptr i8, ptr %29, i64 12
  %31 = call i32 @load32_le(ptr noundef %30)
  %32 = load ptr, ptr %3, align 8
  %33 = getelementptr inbounds nuw %struct.salsa_ctx, ptr %32, i32 0, i32 0
  %34 = load i32, ptr getelementptr ([16 x i32], ptr @TR, i64 0, i64 4), align 16
  %35 = sext i32 %34 to i64
  %36 = getelementptr [16 x i32], ptr %33, i64 0, i64 %35
  store i32 %31, ptr %36, align 4
  %37 = load ptr, ptr %4, align 8
  %38 = getelementptr i8, ptr %37, i64 16
  %39 = call i32 @load32_le(ptr noundef %38)
  %40 = load ptr, ptr %3, align 8
  %41 = getelementptr inbounds nuw %struct.salsa_ctx, ptr %40, i32 0, i32 0
  %42 = load i32, ptr getelementptr ([16 x i32], ptr @TR, i64 0, i64 11), align 4
  %43 = sext i32 %42 to i64
  %44 = getelementptr [16 x i32], ptr %41, i64 0, i64 %43
  store i32 %39, ptr %44, align 4
  %45 = load ptr, ptr %4, align 8
  %46 = getelementptr i8, ptr %45, i64 20
  %47 = call i32 @load32_le(ptr noundef %46)
  %48 = load ptr, ptr %3, align 8
  %49 = getelementptr inbounds nuw %struct.salsa_ctx, ptr %48, i32 0, i32 0
  %50 = load i32, ptr getelementptr ([16 x i32], ptr @TR, i64 0, i64 12), align 16
  %51 = sext i32 %50 to i64
  %52 = getelementptr [16 x i32], ptr %49, i64 0, i64 %51
  store i32 %47, ptr %52, align 4
  %53 = load ptr, ptr %4, align 8
  %54 = getelementptr i8, ptr %53, i64 24
  %55 = call i32 @load32_le(ptr noundef %54)
  %56 = load ptr, ptr %3, align 8
  %57 = getelementptr inbounds nuw %struct.salsa_ctx, ptr %56, i32 0, i32 0
  %58 = load i32, ptr getelementptr ([16 x i32], ptr @TR, i64 0, i64 13), align 4
  %59 = sext i32 %58 to i64
  %60 = getelementptr [16 x i32], ptr %57, i64 0, i64 %59
  store i32 %55, ptr %60, align 4
  %61 = load ptr, ptr %4, align 8
  %62 = getelementptr i8, ptr %61, i64 28
  %63 = call i32 @load32_le(ptr noundef %62)
  %64 = load ptr, ptr %3, align 8
  %65 = getelementptr inbounds nuw %struct.salsa_ctx, ptr %64, i32 0, i32 0
  %66 = load i32, ptr getelementptr ([16 x i32], ptr @TR, i64 0, i64 14), align 8
  %67 = sext i32 %66 to i64
  %68 = getelementptr [16 x i32], ptr %65, i64 0, i64 %67
  store i32 %63, ptr %68, align 4
  %69 = load ptr, ptr %3, align 8
  %70 = getelementptr inbounds nuw %struct.salsa_ctx, ptr %69, i32 0, i32 0
  %71 = load i32, ptr @TR, align 16
  %72 = sext i32 %71 to i64
  %73 = getelementptr [16 x i32], ptr %70, i64 0, i64 %72
  store i32 1634760805, ptr %73, align 4
  %74 = load ptr, ptr %3, align 8
  %75 = getelementptr inbounds nuw %struct.salsa_ctx, ptr %74, i32 0, i32 0
  %76 = load i32, ptr getelementptr ([16 x i32], ptr @TR, i64 0, i64 5), align 4
  %77 = sext i32 %76 to i64
  %78 = getelementptr [16 x i32], ptr %75, i64 0, i64 %77
  store i32 857760878, ptr %78, align 4
  %79 = load ptr, ptr %3, align 8
  %80 = getelementptr inbounds nuw %struct.salsa_ctx, ptr %79, i32 0, i32 0
  %81 = load i32, ptr getelementptr ([16 x i32], ptr @TR, i64 0, i64 10), align 8
  %82 = sext i32 %81 to i64
  %83 = getelementptr [16 x i32], ptr %80, i64 0, i64 %82
  store i32 2036477234, ptr %83, align 4
  %84 = load ptr, ptr %3, align 8
  %85 = getelementptr inbounds nuw %struct.salsa_ctx, ptr %84, i32 0, i32 0
  %86 = load i32, ptr getelementptr ([16 x i32], ptr @TR, i64 0, i64 15), align 4
  %87 = sext i32 %86 to i64
  %88 = getelementptr [16 x i32], ptr %85, i64 0, i64 %87
  store i32 1797285236, ptr %88, align 4
  ret void
}

; Function Attrs: inlinehint nounwind ssp uwtable
define internal void @store32_le(ptr noundef %0, i32 noundef %1) #5 {
  %3 = alloca ptr, align 8
  %4 = alloca i32, align 4
  store ptr %0, ptr %3, align 8
  store i32 %1, ptr %4, align 4
  %5 = load ptr, ptr %3, align 8
  %6 = call ptr @memcpy.inline(ptr noundef %5, ptr noundef %4, i64 noundef 4) #12
  ret void
}

; Function Attrs: nounwind ssp uwtable
define internal i32 @stream_avx2_xor_ic(ptr noundef %0, ptr noundef %1, i64 noundef %2, ptr noundef %3, i64 noundef %4, ptr noundef %5) #0 {
  %7 = alloca i32, align 4
  %8 = alloca ptr, align 8
  %9 = alloca ptr, align 8
  %10 = alloca i64, align 8
  %11 = alloca ptr, align 8
  %12 = alloca i64, align 8
  %13 = alloca ptr, align 8
  %14 = alloca %struct.salsa_ctx, align 4
  %15 = alloca [8 x i8], align 1
  %16 = alloca i32, align 4
  %17 = alloca i32, align 4
  %18 = alloca i32, align 4
  store ptr %0, ptr %8, align 8
  store ptr %1, ptr %9, align 8
  store i64 %2, ptr %10, align 8
  store ptr %3, ptr %11, align 8
  store i64 %4, ptr %12, align 8
  store ptr %5, ptr %13, align 8
  call void @llvm.lifetime.start.p0(i64 64, ptr %14) #12
  call void @llvm.lifetime.start.p0(i64 8, ptr %15) #12
  call void @llvm.lifetime.start.p0(i64 4, ptr %16) #12
  call void @llvm.lifetime.start.p0(i64 4, ptr %17) #12
  %19 = load i64, ptr %10, align 8
  %20 = icmp ne i64 %19, 0
  br i1 %20, label %22, label %21

21:                                               ; preds = %6
  store i32 0, ptr %7, align 4
  store i32 1, ptr %18, align 4
  br label %38

22:                                               ; preds = %6
  %23 = load i64, ptr %12, align 8
  %24 = lshr i64 %23, 32
  %25 = trunc i64 %24 to i32
  store i32 %25, ptr %16, align 4
  %26 = load i64, ptr %12, align 8
  %27 = trunc i64 %26 to i32
  store i32 %27, ptr %17, align 4
  %28 = getelementptr [8 x i8], ptr %15, i64 0, i64 0
  %29 = load i32, ptr %17, align 4
  call void @store32_le(ptr noundef %28, i32 noundef %29)
  %30 = getelementptr [8 x i8], ptr %15, i64 0, i64 4
  %31 = load i32, ptr %16, align 4
  call void @store32_le(ptr noundef %30, i32 noundef %31)
  %32 = load ptr, ptr %13, align 8
  call void @salsa_keysetup(ptr noundef %14, ptr noundef %32)
  %33 = load ptr, ptr %11, align 8
  %34 = getelementptr inbounds [8 x i8], ptr %15, i64 0, i64 0
  call void @salsa_ivsetup(ptr noundef %14, ptr noundef %33, ptr noundef %34)
  %35 = load ptr, ptr %9, align 8
  %36 = load ptr, ptr %8, align 8
  %37 = load i64, ptr %10, align 8
  call void @salsa20_encrypt_bytes(ptr noundef %14, ptr noundef %35, ptr noundef %36, i64 noundef %37)
  call void @sodium_memzero(ptr noundef %14, i64 noundef 64)
  store i32 0, ptr %7, align 4
  store i32 1, ptr %18, align 4
  br label %38

38:                                               ; preds = %22, %21
  call void @llvm.lifetime.end.p0(i64 4, ptr %17) #12
  call void @llvm.lifetime.end.p0(i64 4, ptr %16) #12
  call void @llvm.lifetime.end.p0(i64 8, ptr %15) #12
  call void @llvm.lifetime.end.p0(i64 64, ptr %14) #12
  %39 = load i32, ptr %7, align 4
  ret i32 %39
}